target datalayout = "e-m:e-p270:32:32-p271:32:32-p272:64:64-i64:64-i128:128-f80:128-n8:16:32:64-S128"
target triple = "x86_64-pc-linux-gnu"

%"class.std::__cxx11::basic_string" = type { %"struct.std::__cxx11::basic_string<char>::_Alloc_hider", i64, %union.anon }
%"struct.std::__cxx11::basic_string<char>::_Alloc_hider" = type { ptr }
%union.anon = type { i64, [8 x i8] }
%"class.nix::Config" = type { %"class.nix::AbstractConfig", %"class.std::map.14" }
%"class.nix::AbstractConfig" = type { ptr, %"class.std::map" }
%"class.std::map" = type { %"class.std::_Rb_tree.10" }
%"class.std::_Rb_tree.10" = type { %"struct.std::_Rb_tree<std::__cxx11::basic_string<char>, std::pair<const std::__cxx11::basic_string<char>, std::__cxx11::basic_string<char>>, std::_Select1st<std::pair<const std::__cxx11::basic_string<char>, std::__cxx11::basic_string<char>>>, std::less<std::__cxx11::basic_string<char>>>::_Rb_tree_impl" }
%"struct.std::_Rb_tree<std::__cxx11::basic_string<char>, std::pair<const std::__cxx11::basic_string<char>, std::__cxx11::basic_string<char>>, std::_Select1st<std::pair<const std::__cxx11::basic_string<char>, std::__cxx11::basic_string<char>>>, std::less<std::__cxx11::basic_string<char>>>::_Rb_tree_impl" = type { %"struct.std::_Rb_tree_key_compare", %"struct.std::_Rb_tree_header" }
%"struct.std::_Rb_tree_key_compare" = type { %"struct.std::less" }
%"struct.std::less" = type { i8 }
%"struct.std::_Rb_tree_header" = type { %"struct.std::_Rb_tree_node_base", i64 }
%"struct.std::_Rb_tree_node_base" = type { i32, ptr, ptr, ptr }
%"class.std::map.14" = type { %"class.std::_Rb_tree.15" }
%"class.std::_Rb_tree.15" = type { %"struct.std::_Rb_tree<std::__cxx11::basic_string<char>, std::pair<const std::__cxx11::basic_string<char>, nix::Config::SettingData>, std::_Select1st<std::pair<const std::__cxx11::basic_string<char>, nix::Config::SettingData>>, std::less<std::__cxx11::basic_string<char>>>::_Rb_tree_impl" }
%"struct.std::_Rb_tree<std::__cxx11::basic_string<char>, std::pair<const std::__cxx11::basic_string<char>, nix::Config::SettingData>, std::_Select1st<std::pair<const std::__cxx11::basic_string<char>, nix::Config::SettingData>>, std::less<std::__cxx11::basic_string<char>>>::_Rb_tree_impl" = type { %"struct.std::_Rb_tree_key_compare", %"struct.std::_Rb_tree_header" }
%"class.nix::AbstractSetting" = type { ptr, %"class.std::__cxx11::basic_string", %"class.std::__cxx11::basic_string", %"class.std::set", i32, i8, [3 x i8], %"class.std::optional" }
%"class.std::set" = type { %"class.std::_Rb_tree" }
%"class.std::_Rb_tree" = type { %"struct.std::_Rb_tree<std::__cxx11::basic_string<char>, std::__cxx11::basic_string<char>, std::_Identity<std::__cxx11::basic_string<char>>, std::less<std::__cxx11::basic_string<char>>>::_Rb_tree_impl" }
%"struct.std::_Rb_tree<std::__cxx11::basic_string<char>, std::__cxx11::basic_string<char>, std::_Identity<std::__cxx11::basic_string<char>>, std::less<std::__cxx11::basic_string<char>>>::_Rb_tree_impl" = type { %"struct.std::_Rb_tree_key_compare", %"struct.std::_Rb_tree_header" }
%"class.std::optional" = type { %"struct.std::_Optional_base" }
%"struct.std::_Optional_base" = type { %"struct.std::_Optional_payload" }
%"struct.std::_Optional_payload" = type { %"struct.std::_Optional_payload_base.base", [3 x i8] }
%"struct.std::_Optional_payload_base.base" = type <{ %"union.std::_Optional_payload_base<nix::ExperimentalFeature>::_Storage", i8 }>
%"union.std::_Optional_payload_base<nix::ExperimentalFeature>::_Storage" = type { i32 }
%"class.nix::Setting.25" = type { %"class.nix::BaseSetting.base.27", [7 x i8] }
%"class.nix::BaseSetting.base.27" = type <{ %"class.nix::AbstractSetting", %"class.std::set", %"class.std::set", i8 }>
%"class.nix::Setting" = type { %"class.nix::BaseSetting.base", [7 x i8] }
%"class.nix::BaseSetting.base" = type <{ %"class.nix::AbstractSetting", %"class.std::__cxx11::list", %"class.std::__cxx11::list", i8 }>
%"class.std::__cxx11::list" = type { %"class.std::__cxx11::_List_base" }
%"class.std::__cxx11::_List_base" = type { %"struct.std::__cxx11::_List_base<std::__cxx11::basic_string<char>, std::allocator<std::__cxx11::basic_string<char>>>::_List_impl" }
%"struct.std::__cxx11::_List_base<std::__cxx11::basic_string<char>, std::allocator<std::__cxx11::basic_string<char>>>::_List_impl" = type { %"struct.std::__detail::_List_node_header" }
%"struct.std::__detail::_List_node_header" = type { %"struct.std::__detail::_List_node_base", i64 }
%"struct.std::__detail::_List_node_base" = type { ptr, ptr }
%"class.nix::Setting.21" = type { %"class.nix::BaseSetting.base.23", [5 x i8] }
%"class.nix::BaseSetting.base.23" = type <{ %"class.nix::AbstractSetting", i8, i8, i8 }>
%"class.nix::Setting.29" = type { %"class.nix::BaseSetting.base.20", [7 x i8] }
%"class.nix::BaseSetting.base.20" = type <{ %"class.nix::AbstractSetting", %"class.std::__cxx11::basic_string", %"class.std::__cxx11::basic_string", i8 }>
%"struct.nix::LegacySSHStore" = type { ptr, %"class.nix::Setting.6", %"class.std::__cxx11::basic_string", %"class.nix::ref", %"class.nix::SSHMaster", %"struct.nix::LegacySSHStoreConfig.base", %"struct.nix::CommonSSHStoreConfig.base", %"struct.nix::StoreConfig", %"class.nix::Store.base" }
%"class.nix::Setting.6" = type { %"class.nix::BaseSetting.base.8", [7 x i8] }
%"class.nix::BaseSetting.base.8" = type <{ %"class.nix::AbstractSetting", i32, i32, i8 }>
%"class.nix::ref" = type { %"class.std::shared_ptr" }
%"class.std::shared_ptr" = type { %"class.std::__shared_ptr" }
%"class.std::__shared_ptr" = type { ptr, %"class.std::__shared_count" }
%"class.std::__shared_count" = type { ptr }
%"class.nix::SSHMaster" = type { %"class.std::__cxx11::basic_string", i8, %"class.std::__cxx11::basic_string", %"class.std::__cxx11::basic_string", i8, i8, i32, %"class.nix::Sync" }
%"class.nix::Sync" = type { %"class.std::mutex", %"struct.nix::SSHMaster::State" }
%"class.std::mutex" = type { %"class.std::__mutex_base" }
%"class.std::__mutex_base" = type { %union.pthread_mutex_t }
%union.pthread_mutex_t = type { %struct.__pthread_mutex_s }
%struct.__pthread_mutex_s = type { i32, i32, i32, i32, i32, i16, i16, %struct.__pthread_internal_list }
%struct.__pthread_internal_list = type { ptr, ptr }
%"struct.nix::SSHMaster::State" = type { %"class.nix::Pid", %"class.std::unique_ptr", %"class.std::__cxx11::basic_string" }
%"class.nix::Pid" = type { i32, i8, i32 }
%"class.std::unique_ptr" = type { %"struct.std::__uniq_ptr_data" }
%"struct.std::__uniq_ptr_data" = type { %"class.std::__uniq_ptr_impl" }
%"class.std::__uniq_ptr_impl" = type { %"class.std::tuple" }
%"class.std::tuple" = type { %"struct.std::_Tuple_impl" }
%"struct.std::_Tuple_impl" = type { %"struct.std::_Head_base.32" }
%"struct.std::_Head_base.32" = type { ptr }
%"struct.nix::LegacySSHStoreConfig.base" = type { ptr, %"class.nix::Setting", %"class.nix::Setting.6" }
%"struct.nix::CommonSSHStoreConfig.base" = type { ptr, %"class.nix::Setting.29", %"class.nix::Setting.29", %"class.nix::Setting.21", %"class.nix::Setting.29" }
%"struct.nix::StoreConfig" = type { %"struct.nix::StoreDirConfig", %"class.nix::Setting.6", %"class.nix::Setting.21", %"class.nix::Setting.6", %"class.nix::Setting.21", %"class.nix::Setting.25" }
%"struct.nix::StoreDirConfig" = type { %"class.nix::Config", %"class.nix::PathSetting", %"class.std::__cxx11::basic_string" }
%"class.nix::PathSetting" = type { %"class.nix::BaseSetting.base.20", [7 x i8] }
%"class.nix::Store.base" = type { ptr, %"class.std::enable_shared_from_this", %"class.nix::Sync.33", %"class.std::shared_ptr.44", %"struct.nix::Store::Stats" }
%"class.std::enable_shared_from_this" = type { %"class.std::weak_ptr" }
%"class.std::weak_ptr" = type { %"class.std::__weak_ptr" }
%"class.std::__weak_ptr" = type { ptr, %"class.std::__weak_count" }
%"class.std::__weak_count" = type { ptr }
%"class.nix::Sync.33" = type { %"class.std::mutex", %"struct.nix::Store::State" }
%"struct.nix::Store::State" = type { %"class.nix::LRUCache" }
%"class.nix::LRUCache" = type { i64, %"class.std::map.34", %"class.std::__cxx11::list.39" }
%"class.std::map.34" = type { %"class.std::_Rb_tree.35" }
%"class.std::_Rb_tree.35" = type { %"struct.std::_Rb_tree<std::__cxx11::basic_string<char>, std::pair<const std::__cxx11::basic_string<char>, std::pair<nix::LRUCache<std::__cxx11::basic_string<char>, nix::Store::PathInfoCacheValue>::LRUIterator, nix::Store::PathInfoCacheValue>>, std::_Select1st<std::pair<const std::__cxx11::basic_string<char>, std::pair<nix::LRUCache<std::__cxx11::basic_string<char>, nix::Store::PathInfoCacheValue>::LRUIterator, nix::Store::PathInfoCacheValue>>>, std::less<std::__cxx11::basic_string<char>>>::_Rb_tree_impl" }
%"struct.std::_Rb_tree<std::__cxx11::basic_string<char>, std::pair<const std::__cxx11::basic_string<char>, std::pair<nix::LRUCache<std::__cxx11::basic_string<char>, nix::Store::PathInfoCacheValue>::LRUIterator, nix::Store::PathInfoCacheValue>>, std::_Select1st<std::pair<const std::__cxx11::basic_string<char>, std::pair<nix::LRUCache<std::__cxx11::basic_string<char>, nix::Store::PathInfoCacheValue>::LRUIterator, nix::Store::PathInfoCacheValue>>>, std::less<std::__cxx11::basic_string<char>>>::_Rb_tree_impl" = type { %"struct.std::_Rb_tree_key_compare", %"struct.std::_Rb_tree_header" }
%"class.std::__cxx11::list.39" = type { %"class.std::__cxx11::_List_base.40" }
%"class.std::__cxx11::_List_base.40" = type { %"struct.std::__cxx11::_List_base<std::_Rb_tree_iterator<std::pair<const std::__cxx11::basic_string<char>, std::pair<nix::LRUCache<std::__cxx11::basic_string<char>, nix::Store::PathInfoCacheValue>::LRUIterator, nix::Store::PathInfoCacheValue>>>, std::allocator<std::_Rb_tree_iterator<std::pair<const std::__cxx11::basic_string<char>, std::pair<nix::LRUCache<std::__cxx11::basic_string<char>, nix::Store::PathInfoCacheValue>::LRUIterator, nix::Store::PathInfoCacheValue>>>>>::_List_impl" }
%"struct.std::__cxx11::_List_base<std::_Rb_tree_iterator<std::pair<const std::__cxx11::basic_string<char>, std::pair<nix::LRUCache<std::__cxx11::basic_string<char>, nix::Store::PathInfoCacheValue>::LRUIterator, nix::Store::PathInfoCacheValue>>>, std::allocator<std::_Rb_tree_iterator<std::pair<const std::__cxx11::basic_string<char>, std::pair<nix::LRUCache<std::__cxx11::basic_string<char>, nix::Store::PathInfoCacheValue>::LRUIterator, nix::Store::PathInfoCacheValue>>>>>::_List_impl" = type { %"struct.std::__detail::_List_node_header" }
%"class.std::shared_ptr.44" = type { %"class.std::__shared_ptr.45" }
%"class.std::__shared_ptr.45" = type { ptr, %"class.std::__shared_count" }
%"struct.nix::Store::Stats" = type { %"struct.std::atomic", %"struct.std::atomic", %"struct.std::atomic", %"struct.std::atomic", %"struct.std::atomic", %"struct.std::atomic", %"struct.std::atomic", %"struct.std::atomic", %"struct.std::atomic", %"struct.std::atomic", %"struct.std::atomic", %"struct.std::atomic", %"struct.std::atomic" }
%"struct.std::atomic" = type { %"struct.std::__atomic_base" }
%"struct.std::__atomic_base" = type { i64 }
%"class.std::shared_ptr.55" = type { %"class.std::__shared_ptr.56" }
%"class.std::__shared_ptr.56" = type { ptr, %"class.std::__shared_count" }
%"class.nix::Pool<nix::LegacySSHStore::Connection>::Handle" = type <{ ptr, %"class.std::shared_ptr.55", i8, [7 x i8] }>
%"class.std::set.135" = type { %"class.std::_Rb_tree.136" }
%"class.std::_Rb_tree.136" = type { %"struct.std::_Rb_tree<nix::StorePath, nix::StorePath, std::_Identity<nix::StorePath>, std::less<nix::StorePath>>::_Rb_tree_impl" }
%"struct.std::_Rb_tree<nix::StorePath, nix::StorePath, std::_Identity<nix::StorePath>, std::less<nix::StorePath>>::_Rb_tree_impl" = type { %"struct.std::_Rb_tree_key_compare.140", %"struct.std::_Rb_tree_header" }
%"struct.std::_Rb_tree_key_compare.140" = type { %"struct.std::less.141" }
%"struct.std::less.141" = type { i8 }

; Function Attrs: mustprogress nounwind uwtable
define linkonce_odr noundef ptr @_ZNKSt12__shared_ptrIN3nix14LegacySSHStore10ConnectionELN9__gnu_cxx12_Lock_policyE2EE3getEv(ptr noundef nonnull align 8 dereferenceable(16) %0) #2 comdat align 2 {
  %2 = alloca ptr, align 8
  store ptr %0, ptr %2, align 8
  %3 = load ptr, ptr %2, align 8
  %4 = getelementptr inbounds %"class.std::__shared_ptr.56", ptr %3, i32 0, i32 0
  %5 = load ptr, ptr %4, align 8
  ret ptr %5
}

; Function Attrs: mustprogress nounwind uwtable
define linkonce_odr noundef ptr @_ZNKSt12__shared_ptrIN3nix4PoolINS0_14LegacySSHStore10ConnectionEEELN9__gnu_cxx12_Lock_policyE2EE3getEv(ptr noundef nonnull align 8 dereferenceable(16) %0) #2 comdat align 2 {
  %2 = alloca ptr, align 8
  store ptr %0, ptr %2, align 8
  %3 = load ptr, ptr %2, align 8
  %4 = getelementptr inbounds %"class.std::__shared_ptr", ptr %3, i32 0, i32 0
  %5 = load ptr, ptr %4, align 8
  ret ptr %5
}

; Function Attrs: mustprogress nounwind uwtable
define linkonce_odr noundef ptr @_ZNKSt19__shared_ptr_accessIN3nix14LegacySSHStore10ConnectionELN9__gnu_cxx12_Lock_policyE2ELb0ELb0EE6_M_getEv(ptr noundef nonnull align 1 dereferenceable(1) %0) #2 comdat align 2 {
  %2 = alloca ptr, align 8
  store ptr %0, ptr %2, align 8
  %3 = load ptr, ptr %2, align 8
  %4 = call noundef ptr @_ZNKSt12__shared_ptrIN3nix14LegacySSHStore10ConnectionELN9__gnu_cxx12_Lock_policyE2EE3getEv(ptr noundef nonnull align 8 dereferenceable(16) %3) #1
  ret ptr %4
}

; Function Attrs: mustprogress nounwind uwtable
define linkonce_odr noundef ptr @_ZNKSt19__shared_ptr_accessIN3nix4PoolINS0_14LegacySSHStore10ConnectionEEELN9__gnu_cxx12_Lock_policyE2ELb0ELb0EE6_M_getEv(ptr noundef nonnull align 1 dereferenceable(1) %0) #2 comdat align 2 {
  %2 = alloca ptr, align 8
  store ptr %0, ptr %2, align 8
  %3 = load ptr, ptr %2, align 8
  %4 = call noundef ptr @_ZNKSt12__shared_ptrIN3nix4PoolINS0_14LegacySSHStore10ConnectionEEELN9__gnu_cxx12_Lock_policyE2EE3getEv(ptr noundef nonnull align 8 dereferenceable(16) %3) #1
  ret ptr %4
}

; Function Attrs: mustprogress nounwind uwtable
define linkonce_odr noundef nonnull align 8 dereferenceable(177) ptr @_ZNKSt19__shared_ptr_accessIN3nix14LegacySSHStore10ConnectionELN9__gnu_cxx12_Lock_policyE2ELb0ELb0EEdeEv(ptr noundef nonnull align 1 dereferenceable(1) %0) #2 comdat align 2 {
  %2 = alloca ptr, align 8
  store ptr %0, ptr %2, align 8
  %3 = load ptr, ptr %2, align 8
  br label %4

4:                                                ; preds = %1
  br label %5

5:                                                ; preds = %4
  br label %6

6:                                                ; preds = %5
  %7 = call noundef ptr @_ZNKSt19__shared_ptr_accessIN3nix14LegacySSHStore10ConnectionELN9__gnu_cxx12_Lock_policyE2ELb0ELb0EE6_M_getEv(ptr noundef nonnull align 1 dereferenceable(1) %3) #1
  ret ptr %7
}

; Function Attrs: mustprogress nounwind uwtable
define linkonce_odr noundef nonnull align 8 dereferenceable(192) ptr @_ZNKSt19__shared_ptr_accessIN3nix4PoolINS0_14LegacySSHStore10ConnectionEEELN9__gnu_cxx12_Lock_policyE2ELb0ELb0EEdeEv(ptr noundef nonnull align 1 dereferenceable(1) %0) #2 comdat align 2 {
  %2 = alloca ptr, align 8
  store ptr %0, ptr %2, align 8
  %3 = load ptr, ptr %2, align 8
  br label %4

4:                                                ; preds = %1
  br label %5

5:                                                ; preds = %4
  br label %6

6:                                                ; preds = %5
  %7 = call noundef ptr @_ZNKSt19__shared_ptr_accessIN3nix4PoolINS0_14LegacySSHStore10ConnectionEEELN9__gnu_cxx12_Lock_policyE2ELb0ELb0EE6_M_getEv(ptr noundef nonnull align 1 dereferenceable(1) %3) #1
  ret ptr %7
}

; Function Attrs: mustprogress nounwind uwtable
define linkonce_odr noundef ptr @_ZN3nix4PoolINS_14LegacySSHStore10ConnectionEE6HandleptEv(ptr noundef nonnull align 8 dereferenceable(25) %0) #2 comdat align 2 {
  %2 = alloca ptr, align 8
  store ptr %0, ptr %2, align 8
  %3 = load ptr, ptr %2, align 8
  %4 = getelementptr inbounds %"class.nix::Pool<nix::LegacySSHStore::Connection>::Handle", ptr %3, i32 0, i32 1
  %5 = call noundef nonnull align 8 dereferenceable(177) ptr @_ZNKSt19__shared_ptr_accessIN3nix14LegacySSHStore10ConnectionELN9__gnu_cxx12_Lock_policyE2ELb0ELb0EEdeEv(ptr noundef nonnull align 1 dereferenceable(1) %4) #1
  ret ptr %5
}

; Function Attrs: mustprogress nounwind uwtable
define linkonce_odr noundef ptr @_ZNK3nix3refINS_4PoolINS_14LegacySSHStore10ConnectionEEEEptEv(ptr noundef nonnull align 8 dereferenceable(16) %0) #2 comdat align 2 {
  %2 = alloca ptr, align 8
  store ptr %0, ptr %2, align 8
  %3 = load ptr, ptr %2, align 8
  %4 = getelementptr inbounds %"class.nix::ref", ptr %3, i32 0, i32 0
  %5 = call noundef nonnull align 8 dereferenceable(192) ptr @_ZNKSt19__shared_ptr_accessIN3nix4PoolINS0_14LegacySSHStore10ConnectionEEELN9__gnu_cxx12_Lock_policyE2ELb0ELb0EEdeEv(ptr noundef nonnull align 1 dereferenceable(1) %4) #1
  ret ptr %5
}

; Function Attrs: mustprogress uwtable
define void @_ZN3nix14LegacySSHStore15queryValidPathsERKSt3setINS_9StorePathESt4lessIS2_ESaIS2_EENS_14SubstituteFlagE(ptr dead_on_unwind noalias writable sret(%"class.std::set.135") align 8 %0, ptr noundef nonnull align 8 dereferenceable(416) %1, ptr noundef nonnull align 8 dereferenceable(48) %2, i1 noundef zeroext %3) unnamed_addr #5 align 2 personality ptr @__gxx_personality_v0 {
  %5 = alloca ptr, align 8
  %6 = alloca ptr, align 8
  %7 = alloca ptr, align 8
  %8 = alloca i8, align 1
  %9 = alloca %"class.nix::Pool<nix::LegacySSHStore::Connection>::Handle", align 8
  %10 = alloca ptr, align 8
  %11 = alloca i32, align 4
  store ptr %0, ptr %5, align 8
  store ptr %1, ptr %6, align 8
  store ptr %2, ptr %7, align 8
  %12 = zext i1 %3 to i8
  store i8 %12, ptr %8, align 1
  %13 = load ptr, ptr %6, align 8
  %14 = getelementptr inbounds %"struct.nix::LegacySSHStore", ptr %13, i32 0, i32 3
  %15 = call noundef ptr @_ZNK3nix3refINS_4PoolINS_14LegacySSHStore10ConnectionEEEEptEv(ptr noundef nonnull align 8 dereferenceable(16) %14)
  call void @_ZN3nix4PoolINS_14LegacySSHStore10ConnectionEE3getEv(ptr dead_on_unwind writable sret(%"class.nix::Pool<nix::LegacySSHStore::Connection>::Handle") align 8 %9, ptr noundef nonnull align 8 dereferenceable(192) %15)
  %16 = invoke noundef ptr @_ZN3nix4PoolINS_14LegacySSHStore10ConnectionEE6HandleptEv(ptr noundef nonnull align 8 dereferenceable(25) %9)
          to label %17 unwind label %26

17:                                               ; preds = %4
  %18 = load ptr, ptr %13, align 8
  %19 = getelementptr i8, ptr %18, i64 -48
  %20 = load i64, ptr %19, align 8
  %21 = getelementptr inbounds i8, ptr %13, i64 %20
  %22 = load ptr, ptr %7, align 8
  %23 = load i8, ptr %8, align 1
  %24 = trunc i8 %23 to i1
  invoke void @_ZN3nix10ServeProto21BasicClientConnection15queryValidPathsERKNS_5StoreEbRKSt3setINS_9StorePathESt4lessIS6_ESaIS6_EENS_14SubstituteFlagE(ptr dead_on_unwind writable sret(%"class.std::set.135") align 8 %0, ptr noundef nonnull align 8 dereferenceable(164) %16, ptr noundef nonnull align 8 dereferenceable(264) %21, i1 noundef zeroext false, ptr noundef nonnull align 8 dereferenceable(48) %22, i1 noundef zeroext %24)
          to label %25 unwind label %26

25:                                               ; preds = %17
  call void @_ZN3nix4PoolINS_14LegacySSHStore10ConnectionEE6HandleD2Ev(ptr noundef nonnull align 8 dereferenceable(25) %9) #1
  ret void

26:                                               ; preds = %17, %4
  %27 = landingpad { ptr, i32 }
          cleanup
  %28 = extractvalue { ptr, i32 } %27, 0
  store ptr %28, ptr %10, align 8
  %29 = extractvalue { ptr, i32 } %27, 1
  store i32 %29, ptr %11, align 4
  call void @_ZN3nix4PoolINS_14LegacySSHStore10ConnectionEE6HandleD2Ev(ptr noundef nonnull align 8 dereferenceable(25) %9) #1
  br label %30

30:                                               ; preds = %26
  %31 = load ptr, ptr %10, align 8
  %32 = load i32, ptr %11, align 4
  %33 = insertvalue { ptr, i32 } poison, ptr %31, 0
  %34 = insertvalue { ptr, i32 } %33, i32 %32, 1
  resume { ptr, i32 } %34
}