; Function Attrs: mustprogress uwtable
define void @_ZN3nix14LegacySSHStore15queryValidPathsERKSt3setINS_9StorePathESt4lessIS2_ESaIS2_EENS_14SubstituteFlagE(ptr dead_on_unwind noalias writable sret(%"class.std::set.135") align 8 %0, ptr noundef nonnull align 8 dereferenceable(416) %1, ptr noundef nonnull align 8 dereferenceable(48) %2, i1 noundef zeroext %3) unnamed_addr #5 align 2 personality ptr @__gxx_personality_v0 {
  %5 = alloca %"class.nix::Pool<nix::LegacySSHStore::Connection>::Handle", align 8
  %6 = getelementptr inbounds i8, ptr %1, i64 192
  %7 = load ptr, ptr %6, align 8
  call void @_ZN3nix4PoolINS_14LegacySSHStore10ConnectionEE3getEv(ptr dead_on_unwind nonnull writable sret(%"class.nix::Pool<nix::LegacySSHStore::Connection>::Handle") align 8 %5, ptr noundef nonnull align 8 dereferenceable(192) %7)
  %8 = getelementptr inbounds i8, ptr %5, i64 8
  %9 = load ptr, ptr %8, align 8
  %10 = load ptr, ptr %1, align 8
  %11 = getelementptr i8, ptr %10, i64 -48
  %12 = load i64, ptr %11, align 8
  %13 = getelementptr inbounds i8, ptr %1, i64 %12
  invoke void @_ZN3nix10ServeProto21BasicClientConnection15queryValidPathsERKNS_5StoreEbRKSt3setINS_9StorePathESt4lessIS6_ESaIS6_EENS_14SubstituteFlagE(ptr dead_on_unwind writable sret(%"class.std::set.135") align 8 %0, ptr noundef nonnull align 8 dereferenceable(164) %9, ptr noundef nonnull align 8 dereferenceable(264) %13, i1 noundef zeroext false, ptr noundef nonnull align 8 dereferenceable(48) %2, i1 noundef zeroext %3)
          to label %14 unwind label %15

14:                                               ; preds = %4
  call void @_ZN3nix4PoolINS_14LegacySSHStore10ConnectionEE6HandleD2Ev(ptr noundef nonnull align 8 dereferenceable(25) %5) #29
  ret void

15:                                               ; preds = %4
  %16 = landingpad { ptr, i32 }
          cleanup
  call void @_ZN3nix4PoolINS_14LegacySSHStore10ConnectionEE6HandleD2Ev(ptr noundef nonnull align 8 dereferenceable(25) %5) #29
  resume { ptr, i32 } %16
}